; Function Attrs: mustprogress nofree norecurse nosync nounwind willreturn memory(write, argmem: readwrite, inaccessiblemem: none) uwtable
define void @_ZN18ForeignLambdaTerms12zeroAllTermsEv(ptr nocapture noundef nonnull align 8 dereferenceable(65) %0) local_unnamed_addr #8 align 2 {
  %2 = getelementptr inbounds i8, ptr %0, i64 16
  %3 = load ptr, ptr %2, align 8
  %4 = getelementptr inbounds i8, ptr %0, i64 24
  %5 = load ptr, ptr %4, align 8
  %.not6.i.i.i.i = icmp eq ptr %3, %5
  br i1 %.not6.i.i.i.i, label %_ZSt4fillIN9__gnu_cxx17__normal_iteratorIPdSt6vectorIdSaIdEEEEdEvT_S7_RKT0_.exit, label %.lr.ph.i.i.i.i.preheader

.lr.ph.i.i.i.i.preheader:                         ; preds = %1
  %6 = ptrtoint ptr %5 to i64
  %7 = ptrtoint ptr %3 to i64
  %8 = add i64 %6, -8
  %9 = sub i64 %8, %7
  %10 = and i64 %9, -8
  %11 = add i64 %10, 8
  tail call void @llvm.memset.p0.i64(ptr align 8 %3, i8 0, i64 %11, i1 false)
  br label %_ZSt4fillIN9__gnu_cxx17__normal_iteratorIPdSt6vectorIdSaIdEEEEdEvT_S7_RKT0_.exit

_ZSt4fillIN9__gnu_cxx17__normal_iteratorIPdSt6vectorIdSaIdEEEEdEvT_S7_RKT0_.exit: ; preds = %.lr.ph.i.i.i.i.preheader, %1
  %12 = getelementptr inbounds i8, ptr %0, i64 40
  %13 = load ptr, ptr %12, align 8
  %14 = getelementptr inbounds i8, ptr %0, i64 48
  %15 = load ptr, ptr %14, align 8
  %.not10 = icmp eq ptr %13, %15
  br i1 %.not10, label %_ZSt4fillIPddEvT_S1_RKT0_.exit._crit_edge, label %.lr.ph.preheader

.lr.ph.preheader:                                 ; preds = %_ZSt4fillIN9__gnu_cxx17__normal_iteratorIPdSt6vectorIdSaIdEEEEdEvT_S7_RKT0_.exit
  %16 = ptrtoint ptr %15 to i64
  %17 = ptrtoint ptr %13 to i64
  %18 = add i64 %16, -56
  %19 = sub i64 %18, %17
  %.fr = freeze i64 %19
  %20 = urem i64 %.fr, 56
  %21 = sub nuw i64 %.fr, %20
  %22 = add i64 %21, 56
  tail call void @llvm.memset.p0.i64(ptr align 8 %13, i8 0, i64 %22, i1 false)
  br label %_ZSt4fillIPddEvT_S1_RKT0_.exit._crit_edge

_ZSt4fillIPddEvT_S1_RKT0_.exit._crit_edge:        ; preds = %.lr.ph.preheader, %_ZSt4fillIN9__gnu_cxx17__normal_iteratorIPdSt6vectorIdSaIdEEEEdEvT_S7_RKT0_.exit
  %23 = getelementptr inbounds i8, ptr %0, i64 64
  store i8 0, ptr %23, align 8
  ret void
}